; Function Attrs: mustprogress nofree norecurse nosync nounwind willreturn memory(argmem: readwrite) uwtable
define hidden void @_ZN5boost9container3pmr13pool_resource21priv_constructor_bodyEv(ptr nocapture noundef nonnull align 8 dereferenceable(56) %0) local_unnamed_addr #0 align 2 {
  %2 = load i64, ptr %0, align 8, !tbaa !3
  %.not.i.i = icmp eq i64 %2, 0
  %.sroa.speculated.i.i = tail call i64 @llvm.umin.i64(i64 %2, i64 32)
  %storemerge.i.i = select i1 %.not.i.i, i64 32, i64 %.sroa.speculated.i.i
  store i64 %storemerge.i.i, ptr %0, align 8, !tbaa !3
  %3 = getelementptr inbounds nuw i8, ptr %0, i64 8
  %4 = load i64, ptr %3, align 8, !tbaa !3
  %.not.i1.i = icmp eq i64 %4, 0
  br i1 %.not.i1.i, label %_ZN5boost9container3pmr13pool_resource16priv_fix_optionsEv.exit, label %5

5:                                                ; preds = %1
  %6 = icmp ult i64 %4, 16
  br i1 %6, label %_ZN5boost9container3pmr13pool_resource16priv_fix_optionsEv.exit, label %7

7:                                                ; preds = %5
  %.sroa.speculated.i2.i = tail call i64 @llvm.umin.i64(i64 %4, i64 4096)
  %8 = add nsw i64 %.sroa.speculated.i2.i, -1
  br label %_ZN5boost9container3pmr13pool_resource16priv_fix_optionsEv.exit

_ZN5boost9container3pmr13pool_resource16priv_fix_optionsEv.exit: ; preds = %1, %5, %7
  %storemerge.i3.i = phi i64 [ 4095, %1 ], [ %8, %7 ], [ 15, %5 ]
  %9 = tail call range(i64 0, 65) i64 @llvm.ctlz.i64(i64 %storemerge.i3.i, i1 false)
  %10 = sub nuw nsw i64 64, %9
  %11 = shl nuw nsw i64 1, %10
  store i64 %11, ptr %3, align 8, !tbaa !7
  ret void
}